target datalayout = "e-m:e-p270:32:32-p271:32:32-p272:64:64-i64:64-i128:128-f80:128-n8:16:32:64-S128"
target triple = "x86_64-pc-linux-gnu"

%struct.sfparse_parser = type { ptr, ptr, i32 }

; Function Attrs: nounwind uwtable
define hidden void @sfparse_parser_init(ptr noundef %0, ptr noundef %1, i64 noundef %2) #0 {
  %4 = alloca ptr, align 8
  %5 = alloca ptr, align 8
  %6 = alloca i64, align 8
  store ptr %0, ptr %4, align 8, !tbaa !3
  store ptr %1, ptr %5, align 8, !tbaa !25
  store i64 %2, ptr %6, align 8, !tbaa !31
  %7 = load i64, ptr %6, align 8, !tbaa !31
  %8 = icmp eq i64 %7, 0
  br i1 %8, label %9, label %14

9:                                                ; preds = %3
  %10 = load ptr, ptr %4, align 8, !tbaa !3
  %11 = getelementptr inbounds nuw %struct.sfparse_parser, ptr %10, i32 0, i32 1
  store ptr null, ptr %11, align 8, !tbaa !22
  %12 = load ptr, ptr %4, align 8, !tbaa !3
  %13 = getelementptr inbounds nuw %struct.sfparse_parser, ptr %12, i32 0, i32 0
  store ptr null, ptr %13, align 8, !tbaa !17
  br label %23

14:                                               ; preds = %3
  %15 = load ptr, ptr %5, align 8, !tbaa !25
  %16 = load ptr, ptr %4, align 8, !tbaa !3
  %17 = getelementptr inbounds nuw %struct.sfparse_parser, ptr %16, i32 0, i32 0
  store ptr %15, ptr %17, align 8, !tbaa !17
  %18 = load ptr, ptr %5, align 8, !tbaa !25
  %19 = load i64, ptr %6, align 8, !tbaa !31
  %20 = getelementptr inbounds nuw i8, ptr %18, i64 %19
  %21 = load ptr, ptr %4, align 8, !tbaa !3
  %22 = getelementptr inbounds nuw %struct.sfparse_parser, ptr %21, i32 0, i32 1
  store ptr %20, ptr %22, align 8, !tbaa !22
  br label %23

23:                                               ; preds = %14, %9
  %24 = load ptr, ptr %4, align 8, !tbaa !3
  %25 = getelementptr inbounds nuw %struct.sfparse_parser, ptr %24, i32 0, i32 2
  store i32 0, ptr %25, align 8, !tbaa !12
  ret void
}