; Function Attrs: mustprogress nofree norecurse nosync nounwind willreturn memory(argmem: write) uwtable
define hidden void @sfparse_parser_init(ptr noundef writeonly captures(none) initializes((0, 20)) %0, ptr noundef %1, i64 noundef %2) local_unnamed_addr #4 {
  %4 = icmp eq i64 %2, 0
  %5 = getelementptr inbounds nuw i8, ptr %1, i64 %2
  %spec.select = select i1 %4, ptr null, ptr %5
  %spec.select9 = select i1 %4, ptr null, ptr %1
  %6 = getelementptr inbounds nuw i8, ptr %0, i64 8
  store ptr %spec.select, ptr %6, align 8, !tbaa !11
  store ptr %spec.select9, ptr %0, align 8, !tbaa !10
  %7 = getelementptr inbounds nuw i8, ptr %0, i64 16
  store i32 0, ptr %7, align 8, !tbaa !3
  ret void
}